(dp0
S'16-N-6'
p1
F721200.0
sS'11-O-2'
p2
F737670.0
sS'11-O-1'
p3
F730000.0
sS'11-O-7'
p4
F730800.0
sS'11-O-6'
p5
F734650.0
sS'11-O-5'
p6
F734640.0
sS'11-O-4'
p7
F714360.0
sS'11-O-9'
p8
F736740.0
sS'11-O-8'
p9
F732350.0
sS'15-N-6'
p10
F713137.0
sS'13-M-1'
p11
F702850.0
sS'14-P-1'
p12
F754706.0
sS'14-P-2'
p13
F753426.0
sS'13-N-18'
p14
F718090.0
sS'13-N-19'
p15
F712650.0
sS'13-N-16'
p16
F721080.0
sS'13-N-17'
p17
F713070.0
sS'13-N-14'
p18
F711300.0
sS'13-N-15'
p19
F724350.0
sS'13-N-12'
p20
F725340.0
sS'13-N-13'
p21
F721550.0
sS'13-N-10'
p22
F726680.0
sS'13-N-11'
p23
F718180.0
sS'12-N-5'
p24
F712820.0
sS'12-N-4'
p25
F710000.0
sS'12-N-7'
p26
F720150.0
sS'12-N-6'
p27
F714520.0
sS'12-N-3'
p28
F717460.0
sS'12-N-2'
p29
F708240.0
sS'12-N-9'
p30
F717650.0
sS'12-N-8'
p31
F721340.0
sS'15-N-1'
p32
F720290.0
sS'11-P-4'
p33
F753580.0
sS'11-P-5'
p34
F757100.0
sS'11-P-1'
p35
F761300.0
sS'11-P-2'
p36
F758280.0
sS'11-P-3'
p37
F753900.0
sS'14-M-2'
p38
F694170.0
sS'14-M-3'
p39
F686800.0
sS'15-M-2'
p40
F697380.0
sS'Holden_Lake'
p41
F734391.0
sS'13-N-4'
p42
F725840.0
sS'13-N-5'
p43
F725300.0
sS'13-N-6'
p44
F726020.0
sS'13-N-7'
p45
F708000.0
sS'13-N-1'
p46
F724350.0
sS'13-N-2'
p47
F720800.0
sS'13-N-3'
p48
F724360.0
sS'13-N-8'
p49
F726000.0
sS'13-N-9'
p50
F717650.0
sS'14-N-3'
p51
F707220.0
sS'14-N-2'
p52
F718300.0
sS'14-N-1'
p53
F717270.0
sS'14-N-6'
p54
F720200.0
sS'14-N-4'
p55
F715570.0
sS'10-Q-1'
p56
F773800.0
sS'10-Q-3'
p57
F773550.0
sS'13-O-11'
p58
F739436.0
sS'13-O-10'
p59
F740620.0
sS'13-O-12'
p60
F740940.0
sS'16-L-3'
p61
F671700.0
sS'16-L-1'
p62
F663590.0
sS'13-O-9'
p63
F737480.0
sS'13-O-8'
p64
F732400.0
sS'13-O-1'
p65
F732400.0
sS'13-O-3'
p66
F733280.0
sS'13-O-2'
p67
F738780.0
sS'13-O-5'
p68
F733280.0
sS'13-O-4'
p69
F738420.0
sS'13-O-7'
p70
F738580.0
sS'13-O-6'
p71
F729580.0
sS'11-N-6'
p72
F720220.0
sS'11-N-7'
p73
F690340.0
sS'11-N-4'
p74
F723480.0
sS'11-N-5'
p75
F722900.0
sS'11-N-2'
p76
F724440.0
sS'11-N-3'
p77
F725230.0
sS'11-N-1'
p78
F722250.0
sS'11-N-8'
p79
F719500.0
sS'11-N-9'
p80
F725000.0
sS'12-N-10'
p81
F711650.0
sS'12-N-13'
p82
F722840.0
sS'12-N-12'
p83
F710760.0
sS'12-N-15'
p84
F712120.0
sS'12-N-14'
p85
F707320.0
sS'12-N-16'
p86
F727000.0
sS'12-O-1'
p87
F746480.0
sS'12-O-2'
p88
F741000.0
sS'12-O-3'
p89
F735360.0
sS'12-O-4'
p90
F734540.0
sS'12-O-5'
p91
F729450.0
sS'12-O-6'
p92
F749500.0
sS'11-O-11'
p93
F736700.0
sS'11-O-10'
p94
F737150.0
sS'14-O-10'
p95
F709650.0
sS'14-O-11'
p96
F751580.0
sS'14-O-13'
p97
F750410.0
sS'11-N-14'
p98
F723125.0
sS'11-N-15'
p99
F722850.0
sS'11-N-16'
p100
F724150.0
sS'11-N-10'
p101
F710900.0
sS'11-N-11'
p102
F719500.0
sS'11-N-12'
p103
F724720.0
sS'11-N-13'
p104
F719950.0
sS'14-L-1'
p105
F666950.0
sS'16-N-23'
p106
F724179.0
sS'15-O-4'
p107
F730835.0
sS'13-N-21'
p108
F712000.0
sS'13-N-20'
p109
F713100.0
sS'15-O-9'
p110
F730515.0
sS'16-N-18'
p111
F723400.0
sS'16-N-12'
p112
F711758.0
sS'14-O-8'
p113
F733135.0
sS'14-O-7'
p114
F737110.0
sS'14-O-6'
p115
F741160.0
sS'10-P-4'
p116
F762620.0
sS'14-O-4'
p117
F737110.0
sS'14-O-5'
p118
F735510.0
sS'10-P-1'
p119
F767520.0
sS'14-O-3'
p120
F738770.0
sS'10-P-3'
p121
F760410.0
sS'10-P-2'
p122
F761580.0
sS'14-O-2'
p123
F737160.0
sS'14-O-1'
p124
F738920.0
sS'13-P-10'
p125
F759796.0
sS'13-P-11'
p126
F753929.0
sS'13-P-8'
p127
F755793.0
sS'13-P-9'
p128
F755880.0
sS'13-P-6'
p129
F757787.0
sS'13-P-7'
p130
F752674.0
sS'13-P-4'
p131
F760317.0
sS'13-P-5'
p132
F754509.0
sS'13-P-3'
p133
F758561.0
sS'13-P-1'
p134
F754769.0
sS'12-P-2'
p135
F753963.0
sS'12-P-1'
p136
F751720.0
s.