(lp0
S'10-P-1'
p1
aS'11-N-9'
p2
aS'11-N-1'
p3
aS'11-O-10'
p4
aS'11-N-4'
p5
aS'13-N-5'
p6
aS'13-N-4'
p7
aS'13-N-16'
p8
aS'13-O-11'
p9
aS'13-O-10'
p10
aS'13-P-1'
p11
aS'13-P-8'
p12
aS'13-P-10'
p13
aS'13-O-7'
p14
aS'13-O-5'
p15
aS'13-N-21'
p16
aS'12-O-5'
p17
aS'Holden_Lake'
p18
aS'13-N-15'
p19
aS'12-N-3'
p20
a.