ccopy_reg
_reconstructor
p0
(cnetworkx.classes.graph
Graph
p1
c__builtin__
object
p2
Ntp3
Rp4
(dp5
S'node'
p6
(dp7
S'11-O-10'
p8
(dp9
S'xCoordinate'
p10
F737150.0
sS'size'
p11
cnumpy.core.multiarray
scalar
p12
(cnumpy
dtype
p13
(S'f8'
p14
I0
I1
tp15
Rp16
(I3
S'<'
p17
NNNI-1
I-1
I0
tp18
bS'?\xb1\t}\xafM\x80@'
p19
tp20
Rp21
sS'yCoordinate'
p22
F3918000.0
sS'name'
p23
g8
sS'label'
p24
g8
ssS'13-N-21'
p25
(dp26
g10
F712000.0
sg11
g12
(g16
S'-\xdbR\x02]a\x7f@'
p27
tp28
Rp29
sg22
F3872820.0
sg23
g25
sg24
g25
ssS'13-P-8'
p30
(dp31
g10
F755793.0
sg11
g12
(g16
S'\x10u\x08|\x1f\xa0c@'
p32
tp33
Rp34
sg22
F3867620.0
sg23
g30
sg24
g30
ssS'13-N-16'
p35
(dp36
g10
F721080.0
sg11
g12
(g16
S'B\x88w\n\x9cza@'
p37
tp38
Rp39
sg22
F3850050.0
sg23
g35
sg24
g35
ssS'13-O-5'
p40
(dp41
g10
F733280.0
sg11
g12
(g16
S'?\xbe\x80\xb2\xfd\xd5\x95@'
p42
tp43
Rp44
sg22
F3870150.0
sg23
g40
sg24
g40
ssS'13-N-15'
p45
(dp46
g10
F724350.0
sg11
g12
(g16
S'\x13\xd3\xf9\xfa/\x9c\x90@'
p47
tp48
Rp49
sg22
F3871500.0
sg23
g45
sg24
g45
ssS'13-P-10'
p50
(dp51
g10
F759796.0
sg11
g12
(g16
S'\xf7\xae\x92-s\x9aR@'
p52
tp53
Rp54
sg22
F3867421.0
sg23
g50
sg24
g50
ssS'13-O-7'
p55
(dp56
g10
F738580.0
sg11
g12
(g16
S'\xf1\x93!\x8c\x12\x82\x8f@'
p57
tp58
Rp59
sg22
F3866850.0
sg23
g55
sg24
g55
ssS'Holden_Lake'
p60
(dp61
g10
F734391.0
sg11
g12
(g16
S'\xbf\xedG\x84\x1dfr@'
p62
tp63
Rp64
sg22
F3902950.0
sg23
g60
sg24
g60
ssS'13-N-4'
p65
(dp66
g10
F725840.0
sg11
g12
(g16
S'\xf0\xf2\xaf/R\xa2h@'
p67
tp68
Rp69
sg22
F3854800.0
sg23
g65
sg24
g65
ssS'13-N-5'
p70
(dp71
g10
F725300.0
sg11
g12
(g16
S'U\xa0\x11>o&P@'
p72
tp73
Rp74
sg22
F3860300.0
sg23
g70
sg24
g70
ssS'11-N-4'
p75
(dp76
g10
F723480.0
sg11
g12
(g16
S'|\xf8:\xf3\xf9,\x90@'
p77
tp78
Rp79
sg22
F3913500.0
sg23
g75
sg24
g75
ssS'12-O-5'
p80
(dp81
g10
F729450.0
sg11
g12
(g16
S'A\x01\xf4\x18x\xabu@'
p82
tp83
Rp84
sg22
F3876440.0
sg23
g80
sg24
g80
ssS'12-N-3'
p85
(dp86
g10
F717460.0
sg11
g12
(g16
S'\xd5}\xc1\xa1\x9d\x1e\x89@'
p87
tp88
Rp89
sg22
F3901650.0
sg23
g85
sg24
g85
ssS'11-N-1'
p90
(dp91
g10
F722250.0
sg11
g12
(g16
S'N\xd7\xb7\n\x00\xa6\x90@'
p92
tp93
Rp94
sg22
F3906400.0
sg23
g90
sg24
g90
ssS'10-P-1'
p95
(dp96
g10
F767520.0
sg11
g12
(g16
S'\x91z\xad-2G_@'
p97
tp98
Rp99
sg22
F3943300.0
sg23
g95
sg24
g95
ssS'13-P-1'
p100
(dp101
g10
F754769.0
sg11
g12
(g16
S'\xbf\xedG\x84\x1dfr@'
p102
tp103
Rp104
sg22
F3874859.0
sg23
g100
sg24
g100
ssS'13-O-11'
p105
(dp106
g10
F739436.0
sg11
g12
(g16
S'\x16\x9c`\xa5\xd4*Z@'
p107
tp108
Rp109
sg22
F3855772.0
sg23
g105
sg24
g105
ssS'13-O-10'
p110
(dp111
g10
F740620.0
sg11
g12
(g16
S'\xcbI\xff\xb9\xcf\x19g@'
p112
tp113
Rp114
sg22
F3851300.0
sg23
g110
sg24
g110
ssS'11-N-9'
p115
(dp116
g10
F725000.0
sg11
g12
(g16
S'\x8a\x03kh\xb4^\x83@'
p117
tp118
Rp119
sg22
F3913000.0
sg23
g115
sg24
g115
sssS'graph'
p120
(dp121
S'is_directed'
p122
I00
ssS'edge'
p123
(dp124
g8
(dp125
S'11-N-4'
p126
(dp127
S'inverseweight'
p128
F17.14670831693667
sS'weight'
p129
F0.05832023158708832
ssS'11-N-1'
p130
(dp131
g128
F10.59565273917215
sg129
F0.09437832898231913
sssg25
(dp132
S'13-P-1'
p133
(dp134
g128
F6.886141031899323
sg129
F0.14521921572149124
sssg30
(dp135
S'13-N-5'
p136
(dp137
g128
F4.269521451682036
sg129
F0.23421828683072585
ssS'13-N-15'
p138
(dp139
g128
F3.9416797356683455
sg129
F0.2536989474185278
ssS'13-P-10'
p140
(dp141
g128
F5.997286900885788
sg129
F0.16674206462463917
sssg35
(dp142
S'13-N-4'
p143
(dp144
g128
F14.25759478683946
sg129
F0.07013805729161658
ssS'13-O-10'
p145
(dp146
g128
F15.998034506306983
sg129
F0.06250767865300985
sssg40
(dp147
S'11-N-4'
p148
(dp149
g128
F14.616142399040806
sg129
F0.06841750529644715
ssS'13-O-7'
p150
(dp151
g128
F13.286657250310872
sg129
F0.07526347531668304
ssS'12-N-3'
p152
(dp153
g128
F13.525745705447017
sg129
F0.07393307709439527
sssg45
(dp154
S'13-P-8'
p155
g139
sS'12-N-3'
p156
(dp157
g128
F13.93227223440156
sg129
F0.07177580104491502
sssg50
(dp158
S'13-P-8'
p159
g141
ssg55
(dp160
S'13-O-5'
p161
g151
sS'12-O-5'
p162
(dp163
g128
F16.93942270211948
sg129
F0.059033889028277144
sssg60
(dp164
S'13-O-11'
p165
(dp166
g128
F2.4403520000293124
sg129
F0.4097769502055394
sssg65
(dp167
S'13-N-16'
p168
g144
sS'13-N-5'
p169
(dp170
g128
F4.874010043036008
sg129
F0.2051698685826061
sssg70
(dp171
S'13-N-4'
p172
g170
sS'13-P-8'
p173
g137
ssg75
(dp174
S'11-O-10'
p175
g127
sS'13-O-5'
p176
g149
ssg80
(dp177
S'13-O-7'
p178
g163
ssg85
(dp179
S'13-N-15'
p180
g157
sS'13-O-5'
p181
g153
ssg90
(dp182
S'13-P-1'
p183
(dp184
g128
F6.383366445584763
sg129
F0.15665715081916978
ssS'11-O-10'
p185
g131
sS'11-N-9'
p186
(dp187
g128
F21.213774888454616
sg129
F0.04713918221807096
sssg95
(dp188
S'13-O-11'
p189
(dp190
g128
F6.329359583097382
sg129
F0.1579938676055805
ssS'13-O-10'
p191
(dp192
g128
F9.278171824981847
sg129
F0.1077798534952177
sssg100
(dp193
S'13-N-21'
p194
g134
sS'11-N-1'
p195
g184
ssg105
(dp196
S'10-P-1'
p197
g190
sS'Holden_Lake'
p198
g166
ssg110
(dp199
S'13-N-16'
p200
g146
sS'10-P-1'
p201
g192
ssg115
(dp202
S'11-N-1'
p203
g187
sssS'adj'
p204
g124
sb.