(dp0
S'16-N-6'
p1
F3770950.0
sS'11-O-2'
p2
F3929800.0
sS'11-O-1'
p3
F3928100.0
sS'11-O-7'
p4
F3911480.0
sS'11-O-6'
p5
F3924830.0
sS'11-O-5'
p6
F3924190.0
sS'11-O-4'
p7
F3944100.0
sS'11-O-9'
p8
F3916540.0
sS'11-O-8'
p9
F3913360.0
sS'15-N-6'
p10
F3797310.0
sS'13-M-1'
p11
F3861600.0
sS'14-P-1'
p12
F3842115.0
sS'14-P-2'
p13
F3843235.0
sS'13-N-18'
p14
F3872280.0
sS'13-N-19'
p15
F3872570.0
sS'13-N-16'
p16
F3850050.0
sS'13-N-17'
p17
F3848410.0
sS'13-N-14'
p18
F3859600.0
sS'13-N-15'
p19
F3871500.0
sS'13-N-12'
p20
F3854080.0
sS'13-N-13'
p21
F3867210.0
sS'13-N-10'
p22
F3855100.0
sS'13-N-11'
p23
F3848720.0
sS'12-N-5'
p24
F3900660.0
sS'12-N-4'
p25
F3888750.0
sS'12-N-7'
p26
F3894330.0
sS'12-N-6'
p27
F3898930.0
sS'12-N-3'
p28
F3901650.0
sS'12-N-2'
p29
F3880450.0
sS'12-N-9'
p30
F3851260.0
sS'12-N-8'
p31
F3896200.0
sS'15-N-1'
p32
F3814590.0
sS'11-P-4'
p33
F3917220.0
sS'11-P-5'
p34
F3917540.0
sS'11-P-1'
p35
F3931860.0
sS'11-P-2'
p36
F3910900.0
sS'11-P-3'
p37
F3918541.28
sS'14-M-2'
p38
F3836130.0
sS'14-M-3'
p39
F3828650.0
sS'15-M-2'
p40
F3796720.0
sS'Holden_Lake'
p41
F3902950.0
sS'13-N-4'
p42
F3854800.0
sS'13-N-5'
p43
F3860300.0
sS'13-N-6'
p44
F3856210.0
sS'13-N-7'
p45
F3861780.0
sS'13-N-1'
p46
F3871500.0
sS'13-N-2'
p47
F3856900.0
sS'13-N-3'
p48
F3861400.0
sS'13-N-8'
p49
F3856480.0
sS'13-N-9'
p50
F3851260.0
sS'14-N-3'
p51
F3846900.0
sS'14-N-2'
p52
F3834070.0
sS'14-N-1'
p53
F3834510.0
sS'14-N-6'
p54
F3820240.0
sS'14-N-4'
p55
F3822310.0
sS'10-Q-1'
p56
F3943700.0
sS'10-Q-3'
p57
F3940400.0
sS'13-O-11'
p58
F3855772.0
sS'13-O-10'
p59
F3851300.0
sS'13-O-12'
p60
F3853220.0
sS'16-L-3'
p61
F3790590.0
sS'16-L-1'
p62
F3772010.0
sS'13-O-9'
p63
F3875620.0
sS'13-O-8'
p64
F3864600.0
sS'13-O-1'
p65
F3864600.0
sS'13-O-3'
p66
F3870150.0
sS'13-O-2'
p67
F3872150.0
sS'13-O-5'
p68
F3870150.0
sS'13-O-4'
p69
F3872640.0
sS'13-O-7'
p70
F3866850.0
sS'13-O-6'
p71
F3873060.0
sS'11-N-6'
p72
F3906950.0
sS'11-N-7'
p73
F3925160.0
sS'11-N-4'
p74
F3913500.0
sS'11-N-5'
p75
F3913410.0
sS'11-N-2'
p76
F3907350.0
sS'11-N-3'
p77
F3908400.0
sS'11-N-1'
p78
F3906400.0
sS'11-N-8'
p79
F3911040.0
sS'11-N-9'
p80
F3913000.0
sS'12-N-10'
p81
F3883280.0
sS'12-N-13'
p82
F3888530.0
sS'12-N-12'
p83
F3878020.0
sS'12-N-15'
p84
F3891230.0
sS'12-N-14'
p85
F3745720.0
sS'12-N-16'
p86
F3888590.0
sS'12-O-1'
p87
F3887490.0
sS'12-O-2'
p88
F3878800.0
sS'12-O-3'
p89
F3877520.0
sS'12-O-4'
p90
F3878460.0
sS'12-O-5'
p91
F3876440.0
sS'12-O-6'
p92
F3881800.0
sS'11-O-11'
p93
F3914900.0
sS'11-O-10'
p94
F3918000.0
sS'14-O-10'
p95
F3870720.0
sS'14-O-11'
p96
F3845860.0
sS'14-O-13'
p97
F3827150.0
sS'11-N-14'
p98
F3918950.0
sS'11-N-15'
p99
F3921670.0
sS'11-N-16'
p100
F3920400.0
sS'11-N-10'
p101
F3904500.0
sS'11-N-11'
p102
F3910400.0
sS'11-N-12'
p103
F3924500.0
sS'11-N-13'
p104
F3909500.0
sS'14-L-1'
p105
F3820150.0
sS'16-N-23'
p106
F3784015.0
sS'15-O-4'
p107
F3816034.0
sS'13-N-21'
p108
F3872820.0
sS'13-N-20'
p109
F3872310.0
sS'15-O-9'
p110
F3807554.0
sS'16-N-18'
p111
F3785226.0
sS'16-N-12'
p112
F3784698.0
sS'14-O-8'
p113
F3822810.0
sS'14-O-7'
p114
F3841980.0
sS'14-O-6'
p115
F3847260.0
sS'10-P-4'
p116
F3936400.0
sS'14-O-4'
p117
F3846780.0
sS'14-O-5'
p118
F3842780.0
sS'10-P-1'
p119
F3943300.0
sS'14-O-3'
p120
F3834660.0
sS'10-P-3'
p121
F3934120.0
sS'10-P-2'
p122
F3935520.0
sS'14-O-2'
p123
F3834164.0
sS'14-O-1'
p124
F3835900.0
sS'13-P-10'
p125
F3867421.0
sS'13-P-11'
p126
F3872116.0
sS'13-P-8'
p127
F3867620.0
sS'13-P-9'
p128
F3867119.0
sS'13-P-6'
p129
F3872748.0
sS'13-P-7'
p130
F3870774.0
sS'13-P-4'
p131
F3869837.0
sS'13-P-5'
p132
F3864400.0
sS'13-P-3'
p133
F3868370.0
sS'13-P-1'
p134
F3874859.0
sS'12-P-2'
p135
F3896399.0
sS'12-P-1'
p136
F3885300.0
s.